(dp0
Vengine
p1
Vxelatex
p2
sVpackages
p3
c__builtin__
set
p4
((lp5
Vamsmath
p6
aVtikz
p7
aVxcolor
p8
aVinputenc
p9
atp10
Rp11
sVfiles_with_guttermarks
p12
g4
((lp13
S'calibration-process.tex'
p14
aV/Users/qingpei/github/LED-Calibration/doc/design/content/./calibration-process.tex
p15
atp16
Rp17
sVsynctex
p18
I01
s.