(dp0
Vengine
p1
Vxelatex
p2
sVpackages
p3
c__builtin__
set
p4
((lp5
tp6
Rp7
sVfiles_with_guttermarks
p8
g4
((lp9
S'overview.tex'
p10
aV/Users/qingpei/github/LED-Calibration/doc/design/content/./flowchart.dot
p11
aV/Users/qingpei/github/LED-Calibration/doc/design/content/./overview.tex
p12
aV/Users/qingpei/github/LED-Calibration/doc/design/content/./calibration-process.dot
p13
aV/usr/local/texlive/2015/texmf-dist/tex/latex/subfiles/subfiles.cls
p14
atp15
Rp16
sVsynctex
p17
I01
s.